target datalayout = "e-m:e-p270:32:32-p271:32:32-p272:64:64-i64:64-i128:128-f80:128-n8:16:32:64-S128"
target triple = "x86_64-pc-linux-gnu"

%struct.cl_engine = type { i32, i32, i32, [2 x i32], i32, i32, i32, ptr, i32, i64, i32, i32, i64, i64, i32, i32, i32, i32, ptr, ptr, ptr, ptr, ptr, ptr, ptr, ptr, ptr, ptr, ptr, ptr, ptr, ptr, ptr, ptr, ptr, ptr, ptr, i64, ptr, %struct.crtmgr, ptr, ptr, ptr, ptr, ptr, ptr, ptr, ptr, ptr, ptr, ptr, ptr, ptr, ptr, ptr, ptr, ptr, %struct.cli_all_bc, [7 x ptr], [7 x i32], i32, i32, i32, i32, i64, i64, i64, i64, i64, ptr, ptr, ptr, ptr, ptr, ptr, ptr, ptr, ptr, i32, i32, i32, i64, i64, i64, ptr }
%struct.crtmgr = type { ptr, i32 }
%struct.cli_all_bc = type { ptr, i32, ptr, %struct.cli_environment, i32 }
%struct.cli_environment = type { i32, i32, i32, i32, i32, i32, i32, [65 x i8], [65 x i8], [65 x i8], [65 x i8], [65 x i8], [65 x i8], [65 x i8], i8, i8, i8, i8, i8, i8, i8, i8, i8 }
%struct.phishcheck = type { %struct.regex_t, i32 }
%struct.regex_t = type { i32, i64, ptr, ptr }

@.str.10 = private unnamed_addr constant [58 x i8] c"Phishcheck: Unable to allocate memory for initialization\0A\00", align 1
@.str.11 = private unnamed_addr constant [32 x i8] c"Initializing phishcheck module\0A\00", align 1
@numeric_url_regex = internal constant [63 x i8] c"^ *(http|https|ftp:(//)?)?[0-9]{1,3}(\\.[0-9]{1,3}){3}[/?:]? *$\00", align 16
@.str.12 = private unnamed_addr constant [31 x i8] c"Phishcheck module initialized\0A\00", align 1
@.str.18 = private unnamed_addr constant [33 x i8] c"Phishcheck: Compiling regex: %s\0A\00", align 1
@.str.19 = private unnamed_addr constant [67 x i8] c"Phishcheck: Error in compiling regex:%s\0ADisabling phishing checks\0A\00", align 1
@.str.20 = private unnamed_addr constant [160 x i8] c"Phishcheck: Error in compiling regex, disabling phishing checks. Additionally an Out-of-memory error was encountered while generating a detailed error message\0A\00", align 1

; Function Attrs: nounwind uwtable
define internal i32 @build_regex(ptr noundef %0, ptr noundef %1, i32 noundef %2) #0 {
  %4 = alloca i32, align 4
  %5 = alloca ptr, align 8
  %6 = alloca ptr, align 8
  %7 = alloca i32, align 4
  %8 = alloca i32, align 4
  %9 = alloca i64, align 8
  %10 = alloca ptr, align 8
  store ptr %0, ptr %5, align 8
  store ptr %1, ptr %6, align 8
  store i32 %2, ptr %7, align 4
  %11 = load ptr, ptr %6, align 8
  call void (ptr, ...) @cli_dbgmsg(ptr noundef @.str.18, ptr noundef %11)
  %12 = load ptr, ptr %5, align 8
  %13 = load ptr, ptr %6, align 8
  %14 = load i32, ptr %7, align 4
  %15 = icmp ne i32 %14, 0
  %16 = select i1 %15, i32 4, i32 0
  %17 = or i32 3, %16
  %18 = call i32 @cli_regcomp(ptr noundef %12, ptr noundef %13, i32 noundef %17)
  store i32 %18, ptr %8, align 4
  %19 = load i32, ptr %8, align 4
  %20 = icmp ne i32 %19, 0
  br i1 %20, label %21, label %39

21:                                               ; preds = %3
  %22 = load i32, ptr %8, align 4
  %23 = load ptr, ptr %5, align 8
  %24 = call i64 @cli_regerror(i32 noundef %22, ptr noundef %23, ptr noundef null, i64 noundef 0)
  store i64 %24, ptr %9, align 8
  %25 = load i64, ptr %9, align 8
  %26 = call noalias ptr @malloc(i64 noundef %25) #10
  store ptr %26, ptr %10, align 8
  %27 = load ptr, ptr %10, align 8
  %28 = icmp ne ptr %27, null
  br i1 %28, label %29, label %37

29:                                               ; preds = %21
  %30 = load i32, ptr %8, align 4
  %31 = load ptr, ptr %5, align 8
  %32 = load ptr, ptr %10, align 8
  %33 = load i64, ptr %9, align 8
  %34 = call i64 @cli_regerror(i32 noundef %30, ptr noundef %31, ptr noundef %32, i64 noundef %33)
  %35 = load ptr, ptr %10, align 8
  call void (ptr, ...) @cli_errmsg(ptr noundef @.str.19, ptr noundef %35)
  %36 = load ptr, ptr %10, align 8
  call void @free(ptr noundef %36) #9
  br label %38

37:                                               ; preds = %21
  call void (ptr, ...) @cli_errmsg(ptr noundef @.str.20)
  br label %38

38:                                               ; preds = %37, %29
  store i32 1, ptr %4, align 4
  br label %40

39:                                               ; preds = %3
  store i32 0, ptr %4, align 4
  br label %40

40:                                               ; preds = %39, %38
  %41 = load i32, ptr %4, align 4
  ret i32 %41
}

; Function Attrs: nounwind uwtable
define i32 @phishing_init(ptr noundef %0) #0 {
  %2 = alloca i32, align 4
  %3 = alloca ptr, align 8
  %4 = alloca ptr, align 8
  store ptr %0, ptr %3, align 8
  %5 = load ptr, ptr %3, align 8
  %6 = getelementptr inbounds %struct.cl_engine, ptr %5, i32 0, i32 26
  %7 = load ptr, ptr %6, align 8
  %8 = icmp ne ptr %7, null
  br i1 %8, label %22, label %9

9:                                                ; preds = %1
  %10 = load ptr, ptr %3, align 8
  %11 = getelementptr inbounds %struct.cl_engine, ptr %10, i32 0, i32 38
  %12 = load ptr, ptr %11, align 8
  %13 = call ptr @mpool_malloc(ptr noundef %12, i64 noundef 40)
  %14 = load ptr, ptr %3, align 8
  %15 = getelementptr inbounds %struct.cl_engine, ptr %14, i32 0, i32 26
  store ptr %13, ptr %15, align 8
  store ptr %13, ptr %4, align 8
  %16 = load ptr, ptr %4, align 8
  %17 = icmp ne ptr %16, null
  br i1 %17, label %19, label %18

18:                                               ; preds = %9
  call void (ptr, ...) @cli_errmsg(ptr noundef @.str.10)
  store i32 20, ptr %2, align 4
  br label %51

19:                                               ; preds = %9
  %20 = load ptr, ptr %4, align 8
  %21 = getelementptr inbounds %struct.phishcheck, ptr %20, i32 0, i32 1
  store i32 1, ptr %21, align 8
  br label %36

22:                                               ; preds = %1
  %23 = load ptr, ptr %3, align 8
  %24 = getelementptr inbounds %struct.cl_engine, ptr %23, i32 0, i32 26
  %25 = load ptr, ptr %24, align 8
  store ptr %25, ptr %4, align 8
  %26 = load ptr, ptr %4, align 8
  %27 = icmp ne ptr %26, null
  br i1 %27, label %29, label %28

28:                                               ; preds = %22
  store i32 2, ptr %2, align 4
  br label %51

29:                                               ; preds = %22
  %30 = load ptr, ptr %4, align 8
  %31 = getelementptr inbounds %struct.phishcheck, ptr %30, i32 0, i32 1
  %32 = load i32, ptr %31, align 8
  %33 = icmp ne i32 %32, 0
  br i1 %33, label %35, label %34

34:                                               ; preds = %29
  store i32 0, ptr %2, align 4
  br label %51

35:                                               ; preds = %29
  br label %36

36:                                               ; preds = %35, %19
  call void (ptr, ...) @cli_dbgmsg(ptr noundef @.str.11)
  %37 = load ptr, ptr %4, align 8
  %38 = getelementptr inbounds %struct.phishcheck, ptr %37, i32 0, i32 0
  %39 = call i32 @build_regex(ptr noundef %38, ptr noundef @numeric_url_regex, i32 noundef 1)
  %40 = icmp ne i32 %39, 0
  br i1 %40, label %41, label %48

41:                                               ; preds = %36
  %42 = load ptr, ptr %3, align 8
  %43 = getelementptr inbounds %struct.cl_engine, ptr %42, i32 0, i32 38
  %44 = load ptr, ptr %43, align 8
  %45 = load ptr, ptr %4, align 8
  call void @mpool_free(ptr noundef %44, ptr noundef %45)
  %46 = load ptr, ptr %3, align 8
  %47 = getelementptr inbounds %struct.cl_engine, ptr %46, i32 0, i32 26
  store ptr null, ptr %47, align 8
  store i32 26, ptr %2, align 4
  br label %51

48:                                               ; preds = %36
  %49 = load ptr, ptr %4, align 8
  %50 = getelementptr inbounds %struct.phishcheck, ptr %49, i32 0, i32 1
  store i32 0, ptr %50, align 8
  call void (ptr, ...) @cli_dbgmsg(ptr noundef @.str.12)
  store i32 0, ptr %2, align 4
  br label %51

51:                                               ; preds = %48, %41, %34, %28, %18
  %52 = load i32, ptr %2, align 4
  ret i32 %52
}