; Function Attrs: nounwind uwtable
define noundef i32 @phishing_init(ptr nocapture noundef %0) local_unnamed_addr #0 {
  %2 = getelementptr inbounds i8, ptr %0, i64 160
  %3 = load ptr, ptr %2, align 8
  %.not = icmp eq ptr %3, null
  br i1 %.not, label %4, label %11

4:                                                ; preds = %1
  %5 = getelementptr inbounds i8, ptr %0, i64 256
  %6 = load ptr, ptr %5, align 8
  %7 = tail call ptr @mpool_malloc(ptr noundef %6, i64 noundef 40) #18
  store ptr %7, ptr %2, align 8
  %.not16 = icmp eq ptr %7, null
  br i1 %.not16, label %8, label %9

8:                                                ; preds = %4
  tail call void (ptr, ...) @cli_errmsg(ptr noundef nonnull @.str.10) #18
  br label %26

9:                                                ; preds = %4
  %10 = getelementptr inbounds i8, ptr %7, i64 32
  store i32 1, ptr %10, align 8
  br label %14

11:                                               ; preds = %1
  %12 = getelementptr inbounds i8, ptr %3, i64 32
  %13 = load i32, ptr %12, align 8
  %.not17 = icmp eq i32 %13, 0
  br i1 %.not17, label %26, label %14

14:                                               ; preds = %11, %9
  %.0 = phi ptr [ %3, %11 ], [ %7, %9 ]
  tail call void (ptr, ...) @cli_dbgmsg(ptr noundef nonnull @.str.11) #18
  tail call void (ptr, ...) @cli_dbgmsg(ptr noundef nonnull @.str.18, ptr noundef nonnull @numeric_url_regex) #18
  %15 = tail call i32 @cli_regcomp(ptr noundef nonnull %.0, ptr noundef nonnull @numeric_url_regex, i32 noundef 7) #18
  %.not.i = icmp eq i32 %15, 0
  br i1 %.not.i, label %build_regex.exit, label %16

16:                                               ; preds = %14
  %17 = tail call i64 @cli_regerror(i32 noundef %15, ptr noundef nonnull %.0, ptr noundef null, i64 noundef 0) #18
  %18 = tail call noalias ptr @malloc(i64 noundef %17) #20
  %.not17.i = icmp eq ptr %18, null
  br i1 %.not17.i, label %21, label %19

19:                                               ; preds = %16
  %20 = tail call i64 @cli_regerror(i32 noundef %15, ptr noundef nonnull %.0, ptr noundef nonnull %18, i64 noundef %17) #18
  tail call void (ptr, ...) @cli_errmsg(ptr noundef nonnull @.str.19, ptr noundef nonnull %18) #18
  tail call void @free(ptr noundef nonnull %18) #18
  br label %22

21:                                               ; preds = %16
  tail call void (ptr, ...) @cli_errmsg(ptr noundef nonnull @.str.20) #18
  br label %22

22:                                               ; preds = %21, %19
  %23 = getelementptr inbounds i8, ptr %0, i64 256
  %24 = load ptr, ptr %23, align 8
  tail call void @mpool_free(ptr noundef %24, ptr noundef nonnull %.0) #18
  store ptr null, ptr %2, align 8
  br label %26

build_regex.exit:                                 ; preds = %14
  %25 = getelementptr inbounds i8, ptr %.0, i64 32
  store i32 0, ptr %25, align 8
  tail call void (ptr, ...) @cli_dbgmsg(ptr noundef nonnull @.str.12) #18
  br label %26

26:                                               ; preds = %11, %build_regex.exit, %22, %8
  %.013 = phi i32 [ 26, %22 ], [ 0, %build_regex.exit ], [ 20, %8 ], [ 0, %11 ]
  ret i32 %.013
}